target datalayout = "e-m:e-p270:32:32-p271:32:32-p272:64:64-i64:64-i128:128-f80:128-n8:16:32:64-S128"
target triple = "x86_64-pc-linux-gnu"

%struct._session_keys_t = type { ptr, ptr, ptr, i32, ptr, ptr }
%struct._GByteArray = type { ptr, i32 }

; Function Attrs: alwaysinline nounwind
define internal ptr @memcpy.inline(ptr noalias %0, ptr noalias %1, i64 %2) #8 {
  %4 = alloca ptr, align 8
  %5 = alloca ptr, align 8
  %6 = alloca i64, align 8
  store ptr %0, ptr %4, align 8
  store ptr %1, ptr %5, align 8
  store i64 %2, ptr %6, align 8
  %7 = load ptr, ptr %4, align 8
  %8 = load ptr, ptr %5, align 8
  %9 = load i64, ptr %6, align 8
  %10 = load ptr, ptr %4, align 8
  %11 = call i64 @llvm.objectsize.i64.p0(ptr %10, i1 false, i1 true, i1 true)
  %12 = call ptr @__memcpy_chk(ptr noundef %7, ptr noundef %8, i64 noundef %9, i64 noundef %11) #10
  ret ptr %12
}

; Function Attrs: nounwind null_pointer_is_valid sspstrong uwtable
define internal void @byte_array_reverse(ptr noundef %0) #4 {
  %2 = alloca ptr, align 8
  %3 = alloca i32, align 4
  %4 = alloca i8, align 1
  store ptr %0, ptr %2, align 8
  call void @llvm.lifetime.start.p0(i64 4, ptr %3) #10
  store i32 0, ptr %3, align 4
  br label %5

5:                                                ; preds = %51, %1
  %6 = load i32, ptr %3, align 4
  %7 = load ptr, ptr %2, align 8
  %8 = getelementptr inbounds nuw %struct._GByteArray, ptr %7, i32 0, i32 1
  %9 = load i32, ptr %8, align 8
  %10 = udiv i32 %9, 2
  %11 = icmp ult i32 %6, %10
  br i1 %11, label %13, label %12

12:                                               ; preds = %5
  call void @llvm.lifetime.end.p0(i64 4, ptr %3) #10
  br label %54

13:                                               ; preds = %5
  call void @llvm.lifetime.start.p0(i64 1, ptr %4) #10
  %14 = load ptr, ptr %2, align 8
  %15 = getelementptr inbounds nuw %struct._GByteArray, ptr %14, i32 0, i32 0
  %16 = load ptr, ptr %15, align 8
  %17 = load i32, ptr %3, align 4
  %18 = zext i32 %17 to i64
  %19 = getelementptr i8, ptr %16, i64 %18
  %20 = load i8, ptr %19, align 1
  store i8 %20, ptr %4, align 1
  %21 = load ptr, ptr %2, align 8
  %22 = getelementptr inbounds nuw %struct._GByteArray, ptr %21, i32 0, i32 0
  %23 = load ptr, ptr %22, align 8
  %24 = load ptr, ptr %2, align 8
  %25 = getelementptr inbounds nuw %struct._GByteArray, ptr %24, i32 0, i32 1
  %26 = load i32, ptr %25, align 8
  %27 = sub i32 %26, 1
  %28 = load i32, ptr %3, align 4
  %29 = sub i32 %27, %28
  %30 = zext i32 %29 to i64
  %31 = getelementptr i8, ptr %23, i64 %30
  %32 = load i8, ptr %31, align 1
  %33 = load ptr, ptr %2, align 8
  %34 = getelementptr inbounds nuw %struct._GByteArray, ptr %33, i32 0, i32 0
  %35 = load ptr, ptr %34, align 8
  %36 = load i32, ptr %3, align 4
  %37 = zext i32 %36 to i64
  %38 = getelementptr i8, ptr %35, i64 %37
  store i8 %32, ptr %38, align 1
  %39 = load i8, ptr %4, align 1
  %40 = load ptr, ptr %2, align 8
  %41 = getelementptr inbounds nuw %struct._GByteArray, ptr %40, i32 0, i32 0
  %42 = load ptr, ptr %41, align 8
  %43 = load ptr, ptr %2, align 8
  %44 = getelementptr inbounds nuw %struct._GByteArray, ptr %43, i32 0, i32 1
  %45 = load i32, ptr %44, align 8
  %46 = sub i32 %45, 1
  %47 = load i32, ptr %3, align 4
  %48 = sub i32 %46, %47
  %49 = zext i32 %48 to i64
  %50 = getelementptr i8, ptr %42, i64 %49
  store i8 %39, ptr %50, align 1
  call void @llvm.lifetime.end.p0(i64 1, ptr %4) #10
  br label %51

51:                                               ; preds = %13
  %52 = load i32, ptr %3, align 4
  %53 = add i32 %52, 1
  store i32 %53, ptr %3, align 4
  br label %5, !llvm.loop !13

54:                                               ; preds = %12
  ret void
}

; Function Attrs: null_pointer_is_valid sspstrong uwtable
define internal ptr @session_keys_copy_cb(ptr noundef %0, ptr noundef %1, i64 noundef %2) #0 {
  %4 = alloca ptr, align 8
  %5 = alloca ptr, align 8
  %6 = alloca i64, align 8
  %7 = alloca ptr, align 8
  %8 = alloca ptr, align 8
  %9 = alloca ptr, align 8
  store ptr %0, ptr %4, align 8
  store ptr %1, ptr %5, align 8
  store i64 %2, ptr %6, align 8
  call void @llvm.lifetime.start.p0(i64 8, ptr %7) #10
  %10 = load ptr, ptr %4, align 8
  store ptr %10, ptr %7, align 8
  call void @llvm.lifetime.start.p0(i64 8, ptr %8) #10
  %11 = load ptr, ptr %5, align 8
  store ptr %11, ptr %8, align 8
  %12 = load ptr, ptr %8, align 8
  %13 = getelementptr inbounds nuw %struct._session_keys_t, ptr %12, i32 0, i32 0
  %14 = load ptr, ptr %13, align 8
  %15 = icmp ne ptr %14, null
  br i1 %15, label %16, label %49

16:                                               ; preds = %3
  %17 = load ptr, ptr %8, align 8
  %18 = getelementptr inbounds nuw %struct._session_keys_t, ptr %17, i32 0, i32 0
  %19 = load ptr, ptr %18, align 8
  %20 = call noalias ptr @g_strdup(ptr noundef %19)
  %21 = load ptr, ptr %7, align 8
  %22 = getelementptr inbounds nuw %struct._session_keys_t, ptr %21, i32 0, i32 0
  store ptr %20, ptr %22, align 8
  call void @llvm.lifetime.start.p0(i64 8, ptr %9) #10
  %23 = call ptr @g_byte_array_new()
  store ptr %23, ptr %9, align 8
  %24 = load ptr, ptr %7, align 8
  %25 = getelementptr inbounds nuw %struct._session_keys_t, ptr %24, i32 0, i32 0
  %26 = load ptr, ptr %25, align 8
  %27 = load ptr, ptr %9, align 8
  %28 = call zeroext i1 @hex_str_to_bytes(ptr noundef %26, ptr noundef %27, i1 noundef zeroext false)
  br i1 %28, label %29, label %46

29:                                               ; preds = %16
  %30 = load ptr, ptr %9, align 8
  %31 = getelementptr inbounds nuw %struct._GByteArray, ptr %30, i32 0, i32 1
  %32 = load i32, ptr %31, align 8
  %33 = icmp eq i32 %32, 4
  br i1 %33, label %34, label %42

34:                                               ; preds = %29
  %35 = load ptr, ptr %9, align 8
  call void @byte_array_reverse(ptr noundef %35)
  %36 = load ptr, ptr %7, align 8
  %37 = getelementptr inbounds nuw %struct._session_keys_t, ptr %36, i32 0, i32 3
  %38 = load ptr, ptr %9, align 8
  %39 = getelementptr inbounds nuw %struct._GByteArray, ptr %38, i32 0, i32 0
  %40 = load ptr, ptr %39, align 8
  %41 = call ptr @memcpy.inline(ptr noundef %37, ptr noundef %40, i64 noundef 4) #10
  br label %45

42:                                               ; preds = %29
  %43 = load ptr, ptr %7, align 8
  %44 = getelementptr inbounds nuw %struct._session_keys_t, ptr %43, i32 0, i32 3
  store i32 0, ptr %44, align 8
  br label %45

45:                                               ; preds = %42, %34
  br label %46

46:                                               ; preds = %45, %16
  %47 = load ptr, ptr %9, align 8
  %48 = call ptr @g_byte_array_free(ptr noundef %47, i32 noundef 1)
  call void @llvm.lifetime.end.p0(i64 8, ptr %9) #10
  br label %54

49:                                               ; preds = %3
  %50 = load ptr, ptr %7, align 8
  %51 = getelementptr inbounds nuw %struct._session_keys_t, ptr %50, i32 0, i32 0
  store ptr null, ptr %51, align 8
  %52 = load ptr, ptr %7, align 8
  %53 = getelementptr inbounds nuw %struct._session_keys_t, ptr %52, i32 0, i32 3
  store i32 0, ptr %53, align 8
  br label %54

54:                                               ; preds = %49, %46
  %55 = load ptr, ptr %8, align 8
  %56 = getelementptr inbounds nuw %struct._session_keys_t, ptr %55, i32 0, i32 1
  %57 = load ptr, ptr %56, align 8
  %58 = icmp ne ptr %57, null
  br i1 %58, label %59, label %76

59:                                               ; preds = %54
  %60 = load ptr, ptr %8, align 8
  %61 = getelementptr inbounds nuw %struct._session_keys_t, ptr %60, i32 0, i32 1
  %62 = load ptr, ptr %61, align 8
  %63 = call noalias ptr @g_strdup(ptr noundef %62)
  %64 = load ptr, ptr %7, align 8
  %65 = getelementptr inbounds nuw %struct._session_keys_t, ptr %64, i32 0, i32 1
  store ptr %63, ptr %65, align 8
  %66 = call ptr @g_byte_array_new()
  %67 = load ptr, ptr %7, align 8
  %68 = getelementptr inbounds nuw %struct._session_keys_t, ptr %67, i32 0, i32 4
  store ptr %66, ptr %68, align 8
  %69 = load ptr, ptr %7, align 8
  %70 = getelementptr inbounds nuw %struct._session_keys_t, ptr %69, i32 0, i32 1
  %71 = load ptr, ptr %70, align 8
  %72 = load ptr, ptr %7, align 8
  %73 = getelementptr inbounds nuw %struct._session_keys_t, ptr %72, i32 0, i32 4
  %74 = load ptr, ptr %73, align 8
  %75 = call zeroext i1 @hex_str_to_bytes(ptr noundef %71, ptr noundef %74, i1 noundef zeroext false)
  br label %81

76:                                               ; preds = %54
  %77 = load ptr, ptr %7, align 8
  %78 = getelementptr inbounds nuw %struct._session_keys_t, ptr %77, i32 0, i32 1
  store ptr null, ptr %78, align 8
  %79 = load ptr, ptr %7, align 8
  %80 = getelementptr inbounds nuw %struct._session_keys_t, ptr %79, i32 0, i32 4
  store ptr null, ptr %80, align 8
  br label %81

81:                                               ; preds = %76, %59
  %82 = load ptr, ptr %8, align 8
  %83 = getelementptr inbounds nuw %struct._session_keys_t, ptr %82, i32 0, i32 2
  %84 = load ptr, ptr %83, align 8
  %85 = icmp ne ptr %84, null
  br i1 %85, label %86, label %103

86:                                               ; preds = %81
  %87 = load ptr, ptr %8, align 8
  %88 = getelementptr inbounds nuw %struct._session_keys_t, ptr %87, i32 0, i32 2
  %89 = load ptr, ptr %88, align 8
  %90 = call noalias ptr @g_strdup(ptr noundef %89)
  %91 = load ptr, ptr %7, align 8
  %92 = getelementptr inbounds nuw %struct._session_keys_t, ptr %91, i32 0, i32 2
  store ptr %90, ptr %92, align 8
  %93 = call ptr @g_byte_array_new()
  %94 = load ptr, ptr %7, align 8
  %95 = getelementptr inbounds nuw %struct._session_keys_t, ptr %94, i32 0, i32 5
  store ptr %93, ptr %95, align 8
  %96 = load ptr, ptr %7, align 8
  %97 = getelementptr inbounds nuw %struct._session_keys_t, ptr %96, i32 0, i32 2
  %98 = load ptr, ptr %97, align 8
  %99 = load ptr, ptr %7, align 8
  %100 = getelementptr inbounds nuw %struct._session_keys_t, ptr %99, i32 0, i32 5
  %101 = load ptr, ptr %100, align 8
  %102 = call zeroext i1 @hex_str_to_bytes(ptr noundef %98, ptr noundef %101, i1 noundef zeroext false)
  br label %108

103:                                              ; preds = %81
  %104 = load ptr, ptr %7, align 8
  %105 = getelementptr inbounds nuw %struct._session_keys_t, ptr %104, i32 0, i32 2
  store ptr null, ptr %105, align 8
  %106 = load ptr, ptr %7, align 8
  %107 = getelementptr inbounds nuw %struct._session_keys_t, ptr %106, i32 0, i32 5
  store ptr null, ptr %107, align 8
  br label %108

108:                                              ; preds = %103, %86
  %109 = load ptr, ptr %7, align 8
  call void @llvm.lifetime.end.p0(i64 8, ptr %8) #10
  call void @llvm.lifetime.end.p0(i64 8, ptr %7) #10
  ret ptr %109
}