; Function Attrs: null_pointer_is_valid sspstrong uwtable
define internal noundef ptr @session_keys_copy_cb(ptr noundef returned initializes((0, 8)) %0, ptr noundef readonly captures(none) %1, i64 %2) #0 {
  %4 = load ptr, ptr %1, align 8
  %.not = icmp eq ptr %4, null
  br i1 %.not, label %40, label %5

5:                                                ; preds = %3
  %6 = tail call noalias ptr @g_strdup(ptr noundef nonnull %4)
  store ptr %6, ptr %0, align 8
  %7 = tail call ptr @g_byte_array_new()
  %8 = load ptr, ptr %0, align 8
  %9 = tail call zeroext i1 @hex_str_to_bytes(ptr noundef %8, ptr noundef %7, i1 noundef zeroext false)
  br i1 %9, label %10, label %38

10:                                               ; preds = %5
  %11 = getelementptr inbounds nuw i8, ptr %7, i64 8
  %12 = load i32, ptr %11, align 8
  %13 = icmp eq i32 %12, 4
  br i1 %13, label %.lr.ph.i, label %36

.lr.ph.i:                                         ; preds = %10, %.lr.ph.i
  %indvars.iv.i = phi i64 [ %indvars.iv.next.i, %.lr.ph.i ], [ 0, %10 ]
  %14 = phi i32 [ %29, %.lr.ph.i ], [ 4, %10 ]
  %15 = load ptr, ptr %7, align 8
  %16 = getelementptr i8, ptr %15, i64 %indvars.iv.i
  %17 = load i8, ptr %16, align 1
  %18 = trunc nuw nsw i64 %indvars.iv.i to i32
  %19 = xor i32 %18, -1
  %20 = add i32 %14, %19
  %21 = zext i32 %20 to i64
  %22 = getelementptr i8, ptr %15, i64 %21
  %23 = load i8, ptr %22, align 1
  store i8 %23, ptr %16, align 1
  %24 = load ptr, ptr %7, align 8
  %25 = load i32, ptr %11, align 8
  %26 = add i32 %25, %19
  %27 = zext i32 %26 to i64
  %28 = getelementptr i8, ptr %24, i64 %27
  store i8 %17, ptr %28, align 1
  %indvars.iv.next.i = add nuw nsw i64 %indvars.iv.i, 1
  %29 = load i32, ptr %11, align 8
  %30 = lshr i32 %29, 1
  %31 = zext nneg i32 %30 to i64
  %32 = icmp samesign ult i64 %indvars.iv.next.i, %31
  br i1 %32, label %.lr.ph.i, label %byte_array_reverse.exit, !llvm.loop !13

byte_array_reverse.exit:                          ; preds = %.lr.ph.i
  %33 = getelementptr inbounds nuw i8, ptr %0, i64 24
  %34 = load ptr, ptr %7, align 8
  %35 = load i32, ptr %34, align 1
  store i32 %35, ptr %33, align 1
  br label %38

36:                                               ; preds = %10
  %37 = getelementptr inbounds nuw i8, ptr %0, i64 24
  store i32 0, ptr %37, align 8
  br label %38

38:                                               ; preds = %byte_array_reverse.exit, %36, %5
  %39 = tail call ptr @g_byte_array_free(ptr noundef %7, i32 noundef 1)
  br label %42

40:                                               ; preds = %3
  store ptr null, ptr %0, align 8
  %41 = getelementptr inbounds nuw i8, ptr %0, i64 24
  store i32 0, ptr %41, align 8
  br label %42

42:                                               ; preds = %40, %38
  %43 = getelementptr inbounds nuw i8, ptr %1, i64 8
  %44 = load ptr, ptr %43, align 8
  %.not34 = icmp eq ptr %44, null
  br i1 %.not34, label %52, label %45

45:                                               ; preds = %42
  %46 = tail call noalias ptr @g_strdup(ptr noundef nonnull %44)
  %47 = getelementptr inbounds nuw i8, ptr %0, i64 8
  store ptr %46, ptr %47, align 8
  %48 = tail call ptr @g_byte_array_new()
  %49 = getelementptr inbounds nuw i8, ptr %0, i64 32
  store ptr %48, ptr %49, align 8
  %50 = load ptr, ptr %47, align 8
  %51 = tail call zeroext i1 @hex_str_to_bytes(ptr noundef %50, ptr noundef %48, i1 noundef zeroext false)
  br label %55

52:                                               ; preds = %42
  %53 = getelementptr inbounds nuw i8, ptr %0, i64 8
  store ptr null, ptr %53, align 8
  %54 = getelementptr inbounds nuw i8, ptr %0, i64 32
  store ptr null, ptr %54, align 8
  br label %55

55:                                               ; preds = %52, %45
  %56 = getelementptr inbounds nuw i8, ptr %1, i64 16
  %57 = load ptr, ptr %56, align 8
  %.not35 = icmp eq ptr %57, null
  br i1 %.not35, label %65, label %58

58:                                               ; preds = %55
  %59 = tail call noalias ptr @g_strdup(ptr noundef nonnull %57)
  %60 = getelementptr inbounds nuw i8, ptr %0, i64 16
  store ptr %59, ptr %60, align 8
  %61 = tail call ptr @g_byte_array_new()
  %62 = getelementptr inbounds nuw i8, ptr %0, i64 40
  store ptr %61, ptr %62, align 8
  %63 = load ptr, ptr %60, align 8
  %64 = tail call zeroext i1 @hex_str_to_bytes(ptr noundef %63, ptr noundef %61, i1 noundef zeroext false)
  br label %68

65:                                               ; preds = %55
  %66 = getelementptr inbounds nuw i8, ptr %0, i64 16
  store ptr null, ptr %66, align 8
  %67 = getelementptr inbounds nuw i8, ptr %0, i64 40
  store ptr null, ptr %67, align 8
  br label %68

68:                                               ; preds = %65, %58
  ret ptr %0
}